target datalayout = "e-m:e-p270:32:32-p271:32:32-p272:64:64-i64:64-i128:128-f80:128-n8:16:32:64-S128"
target triple = "x86_64-pc-linux-gnu"

%struct.gmx_mtop_t = type { ptr, %struct.gmx_ffparams_t, %"class.std::vector.10", %"class.std::vector.15", i8, %"class.std::unique_ptr", i32, %struct.SimulationGroups, %struct.t_symtab, i8, %"class.std::vector", %"class.std::vector.33", i32, i32 }
%struct.gmx_ffparams_t = type { i32, %"class.std::vector", %"class.std::vector.0", double, float, %struct.gmx_cmap_t }
%"class.std::vector.0" = type { %"struct.std::_Vector_base.1" }
%"struct.std::_Vector_base.1" = type { %"struct.std::_Vector_base<t_iparams, std::allocator<t_iparams>>::_Vector_impl" }
%"struct.std::_Vector_base<t_iparams, std::allocator<t_iparams>>::_Vector_impl" = type { %"struct.std::_Vector_base<t_iparams, std::allocator<t_iparams>>::_Vector_impl_data" }
%"struct.std::_Vector_base<t_iparams, std::allocator<t_iparams>>::_Vector_impl_data" = type { ptr, ptr, ptr }
%struct.gmx_cmap_t = type { i32, %"class.std::vector.5" }
%"class.std::vector.5" = type { %"struct.std::_Vector_base.6" }
%"struct.std::_Vector_base.6" = type { %"struct.std::_Vector_base<gmx_cmapdata_t, std::allocator<gmx_cmapdata_t>>::_Vector_impl" }
%"struct.std::_Vector_base<gmx_cmapdata_t, std::allocator<gmx_cmapdata_t>>::_Vector_impl" = type { %"struct.std::_Vector_base<gmx_cmapdata_t, std::allocator<gmx_cmapdata_t>>::_Vector_impl_data" }
%"struct.std::_Vector_base<gmx_cmapdata_t, std::allocator<gmx_cmapdata_t>>::_Vector_impl_data" = type { ptr, ptr, ptr }
%"class.std::vector.10" = type { %"struct.std::_Vector_base.11" }
%"struct.std::_Vector_base.11" = type { %"struct.std::_Vector_base<gmx_moltype_t, std::allocator<gmx_moltype_t>>::_Vector_impl" }
%"struct.std::_Vector_base<gmx_moltype_t, std::allocator<gmx_moltype_t>>::_Vector_impl" = type { %"struct.std::_Vector_base<gmx_moltype_t, std::allocator<gmx_moltype_t>>::_Vector_impl_data" }
%"struct.std::_Vector_base<gmx_moltype_t, std::allocator<gmx_moltype_t>>::_Vector_impl_data" = type { ptr, ptr, ptr }
%"class.std::vector.15" = type { %"struct.std::_Vector_base.16" }
%"struct.std::_Vector_base.16" = type { %"struct.std::_Vector_base<gmx_molblock_t, std::allocator<gmx_molblock_t>>::_Vector_impl" }
%"struct.std::_Vector_base<gmx_molblock_t, std::allocator<gmx_molblock_t>>::_Vector_impl" = type { %"struct.std::_Vector_base<gmx_molblock_t, std::allocator<gmx_molblock_t>>::_Vector_impl_data" }
%"struct.std::_Vector_base<gmx_molblock_t, std::allocator<gmx_molblock_t>>::_Vector_impl_data" = type { ptr, ptr, ptr }
%"class.std::unique_ptr" = type { %"struct.std::__uniq_ptr_data" }
%"struct.std::__uniq_ptr_data" = type { %"class.std::__uniq_ptr_impl" }
%"class.std::__uniq_ptr_impl" = type { %"class.std::tuple" }
%"class.std::tuple" = type { %"struct.std::_Tuple_impl" }
%"struct.std::_Tuple_impl" = type { %"struct.std::_Head_base.21" }
%"struct.std::_Head_base.21" = type { ptr }
%struct.SimulationGroups = type { %"struct.gmx::EnumerationArray", %"class.std::vector.22", %"struct.gmx::EnumerationArray.27" }
%"struct.gmx::EnumerationArray" = type { [10 x %"class.std::vector"] }
%"class.std::vector.22" = type { %"struct.std::_Vector_base.23" }
%"struct.std::_Vector_base.23" = type { %"struct.std::_Vector_base<char **, std::allocator<char **>>::_Vector_impl" }
%"struct.std::_Vector_base<char **, std::allocator<char **>>::_Vector_impl" = type { %"struct.std::_Vector_base<char **, std::allocator<char **>>::_Vector_impl_data" }
%"struct.std::_Vector_base<char **, std::allocator<char **>>::_Vector_impl_data" = type { ptr, ptr, ptr }
%"struct.gmx::EnumerationArray.27" = type { [10 x %"class.std::vector.28"] }
%"class.std::vector.28" = type { %"struct.std::_Vector_base.29" }
%"struct.std::_Vector_base.29" = type { %"struct.std::_Vector_base<unsigned char, std::allocator<unsigned char>>::_Vector_impl" }
%"struct.std::_Vector_base<unsigned char, std::allocator<unsigned char>>::_Vector_impl" = type { %"struct.std::_Vector_base<unsigned char, std::allocator<unsigned char>>::_Vector_impl_data" }
%"struct.std::_Vector_base<unsigned char, std::allocator<unsigned char>>::_Vector_impl_data" = type { ptr, ptr, ptr }
%struct.t_symtab = type { i32, ptr }
%"class.std::vector" = type { %"struct.std::_Vector_base" }
%"struct.std::_Vector_base" = type { %"struct.std::_Vector_base<int, std::allocator<int>>::_Vector_impl" }
%"struct.std::_Vector_base<int, std::allocator<int>>::_Vector_impl" = type { %"struct.std::_Vector_base<int, std::allocator<int>>::_Vector_impl_data" }
%"struct.std::_Vector_base<int, std::allocator<int>>::_Vector_impl_data" = type { ptr, ptr, ptr }
%"class.std::vector.33" = type { %"struct.std::_Vector_base.34" }
%"struct.std::_Vector_base.34" = type { %"struct.std::_Vector_base<MoleculeBlockIndices, std::allocator<MoleculeBlockIndices>>::_Vector_impl" }
%"struct.std::_Vector_base<MoleculeBlockIndices, std::allocator<MoleculeBlockIndices>>::_Vector_impl" = type { %"struct.std::_Vector_base<MoleculeBlockIndices, std::allocator<MoleculeBlockIndices>>::_Vector_impl_data" }
%"struct.std::_Vector_base<MoleculeBlockIndices, std::allocator<MoleculeBlockIndices>>::_Vector_impl_data" = type { ptr, ptr, ptr }
%"class.gmx::InconsistentInputError" = type { %"class.gmx::UserInputError" }
%"class.gmx::UserInputError" = type { %"class.gmx::GromacsException" }
%"class.gmx::GromacsException" = type { %"class.std::exception", %"class.std::shared_ptr" }
%"class.std::exception" = type { ptr }
%"class.std::shared_ptr" = type { %"class.std::__shared_ptr" }
%"class.std::__shared_ptr" = type { ptr, %"class.std::__shared_count" }
%"class.std::__shared_count" = type { ptr }
%"class.gmx::ExceptionInitializer" = type { %"class.std::__cxx11::basic_string", %"class.std::vector.47" }
%"class.std::__cxx11::basic_string" = type { %"struct.std::__cxx11::basic_string<char>::_Alloc_hider", i64, %union.anon.46 }
%"struct.std::__cxx11::basic_string<char>::_Alloc_hider" = type { ptr }
%union.anon.46 = type { i64, [8 x i8] }
%"class.std::vector.47" = type { %"struct.std::_Vector_base.48" }
%"struct.std::_Vector_base.48" = type { %"struct.std::_Vector_base<std::__exception_ptr::exception_ptr, std::allocator<std::__exception_ptr::exception_ptr>>::_Vector_impl" }
%"struct.std::_Vector_base<std::__exception_ptr::exception_ptr, std::allocator<std::__exception_ptr::exception_ptr>>::_Vector_impl" = type { %"struct.std::_Vector_base<std::__exception_ptr::exception_ptr, std::allocator<std::__exception_ptr::exception_ptr>>::_Vector_impl_data" }
%"struct.std::_Vector_base<std::__exception_ptr::exception_ptr, std::allocator<std::__exception_ptr::exception_ptr>>::_Vector_impl_data" = type { ptr, ptr, ptr }
%"class.gmx::ExceptionInfo" = type { %"class.gmx::internal::IExceptionInfo", %"struct.gmx::ThrowLocation" }
%"class.gmx::internal::IExceptionInfo" = type { ptr }
%"struct.gmx::ThrowLocation" = type <{ ptr, ptr, i32, [4 x i8] }>

@.str.20 = private unnamed_addr constant [47 x i8] c"Molecule information not available in topology\00", align 1
@__PRETTY_FUNCTION__._ZL15check_moleculesPK10gmx_mtop_tiP18gmx_ana_selparam_tPv = private unnamed_addr constant [76 x i8] c"void check_molecules(const gmx_mtop_t *, int, gmx_ana_selparam_t *, void *)\00", align 1
@.str.21 = private unnamed_addr constant [129 x i8] c"generated/home/dtcxzyw/WorkSpace/Projects/compilers/llvm-opt-benchmark/bench/gromacs/gromacs/src/gromacs/selection/sm_simple.cpp\00", align 1
@_ZTIN3gmx22InconsistentInputErrorE = external constant ptr
@_ZTVN3gmx8internal14IExceptionInfoE = available_externally unnamed_addr constant { [4 x ptr] } { [4 x ptr] [ptr null, ptr @_ZTIN3gmx8internal14IExceptionInfoE, ptr @_ZN3gmx8internal14IExceptionInfoD1Ev, ptr @_ZN3gmx8internal14IExceptionInfoD0Ev] }, align 8
@_ZTVN3gmx22InconsistentInputErrorE = external unnamed_addr constant { [6 x ptr] }, align 8
@_ZTVN3gmx14UserInputErrorE = linkonce_odr unnamed_addr constant { [6 x ptr] } { [6 x ptr] [ptr null, ptr @_ZTIN3gmx14UserInputErrorE, ptr @_ZN3gmx16GromacsExceptionD2Ev, ptr @_ZN3gmx14UserInputErrorD0Ev, ptr @_ZNK3gmx16GromacsException4whatEv, ptr @__cxa_pure_virtual] }, comdat, align 8

; Function Attrs: mustprogress nounwind uwtable
define linkonce_odr void @_ZN3gmx8internal14IExceptionInfoC2Ev(ptr noundef nonnull align 8 dereferenceable(8) %0) unnamed_addr #2 comdat align 2 {
  %2 = alloca ptr, align 8
  store ptr %0, ptr %2, align 8, !tbaa !165
  %3 = load ptr, ptr %2, align 8
  store ptr getelementptr inbounds inrange(-16, 16) ({ [4 x ptr] }, ptr @_ZTVN3gmx8internal14IExceptionInfoE, i32 0, i32 0, i32 2), ptr %3, align 8, !tbaa !152
  ret void
}

; Function Attrs: mustprogress uwtable
define linkonce_odr void @_ZN3gmx14UserInputErrorC2ERKNS_20ExceptionInitializerE(ptr noundef nonnull align 8 dereferenceable(24) %0, ptr noundef nonnull align 8 dereferenceable(56) %1) unnamed_addr #0 comdat align 2 {
  %3 = alloca ptr, align 8
  %4 = alloca ptr, align 8
  store ptr %0, ptr %3, align 8, !tbaa !193
  store ptr %1, ptr %4, align 8, !tbaa !150
  %5 = load ptr, ptr %3, align 8
  %6 = load ptr, ptr %4, align 8, !tbaa !150
  call void @_ZN3gmx16GromacsExceptionC2ERKNS_20ExceptionInitializerE(ptr noundef nonnull align 8 dereferenceable(24) %5, ptr noundef nonnull align 8 dereferenceable(56) %6)
  store ptr getelementptr inbounds inrange(-16, 32) ({ [6 x ptr] }, ptr @_ZTVN3gmx14UserInputErrorE, i32 0, i32 0, i32 2), ptr %5, align 8, !tbaa !152
  ret void
}

; Function Attrs: mustprogress nounwind uwtable
define linkonce_odr void @_ZN3gmx13ExceptionInfoINS_22ExceptionInfoLocation_ENS_13ThrowLocationEEC2ERKS2_(ptr noundef nonnull align 8 dereferenceable(32) %0, ptr noundef nonnull align 8 dereferenceable(20) %1) unnamed_addr #2 comdat align 2 {
  %3 = alloca ptr, align 8
  %4 = alloca ptr, align 8
  store ptr %0, ptr %3, align 8, !tbaa !148
  store ptr %1, ptr %4, align 8, !tbaa !154
  %5 = load ptr, ptr %3, align 8
  call void @_ZN3gmx8internal14IExceptionInfoC2Ev(ptr noundef nonnull align 8 dereferenceable(8) %5) #18
  store ptr getelementptr inbounds inrange(-16, 16) ({ [4 x ptr] }, ptr @_ZTVN3gmx13ExceptionInfoINS_22ExceptionInfoLocation_ENS_13ThrowLocationEEE, i32 0, i32 0, i32 2), ptr %5, align 8, !tbaa !152
  %6 = getelementptr inbounds nuw %"class.gmx::ExceptionInfo", ptr %5, i32 0, i32 1
  %7 = load ptr, ptr %4, align 8, !tbaa !154
  call void @llvm.memcpy.p0.p0.i64(ptr align 8 %6, ptr align 8 %7, i64 24, i1 false), !tbaa.struct !160
  ret void
}

; Function Attrs: mustprogress nounwind uwtable
define linkonce_odr void @_ZN3gmx13ThrowLocationC2EPKcS2_i(ptr noundef nonnull align 8 dereferenceable(20) %0, ptr noundef %1, ptr noundef %2, i32 noundef %3) unnamed_addr #2 comdat align 2 {
  %5 = alloca ptr, align 8
  %6 = alloca ptr, align 8
  %7 = alloca ptr, align 8
  %8 = alloca i32, align 4
  store ptr %0, ptr %5, align 8, !tbaa !154
  store ptr %1, ptr %6, align 8, !tbaa !58
  store ptr %2, ptr %7, align 8, !tbaa !58
  store i32 %3, ptr %8, align 4, !tbaa !22
  %9 = load ptr, ptr %5, align 8
  %10 = getelementptr inbounds nuw %"struct.gmx::ThrowLocation", ptr %9, i32 0, i32 0
  %11 = load ptr, ptr %6, align 8, !tbaa !58
  store ptr %11, ptr %10, align 8, !tbaa !156
  %12 = getelementptr inbounds nuw %"struct.gmx::ThrowLocation", ptr %9, i32 0, i32 1
  %13 = load ptr, ptr %7, align 8, !tbaa !58
  store ptr %13, ptr %12, align 8, !tbaa !158
  %14 = getelementptr inbounds nuw %"struct.gmx::ThrowLocation", ptr %9, i32 0, i32 2
  %15 = load i32, ptr %8, align 4, !tbaa !22
  store i32 %15, ptr %14, align 8, !tbaa !159
  ret void
}

; Function Attrs: mustprogress uwtable
define linkonce_odr void @_ZN3gmx22InconsistentInputErrorC2ERKNS_20ExceptionInitializerE(ptr noundef nonnull align 8 dereferenceable(24) %0, ptr noundef nonnull align 8 dereferenceable(56) %1) unnamed_addr #0 comdat align 2 {
  %3 = alloca ptr, align 8
  %4 = alloca ptr, align 8
  store ptr %0, ptr %3, align 8, !tbaa !146
  store ptr %1, ptr %4, align 8, !tbaa !150
  %5 = load ptr, ptr %3, align 8
  %6 = load ptr, ptr %4, align 8, !tbaa !150
  call void @_ZN3gmx14UserInputErrorC2ERKNS_20ExceptionInitializerE(ptr noundef nonnull align 8 dereferenceable(24) %5, ptr noundef nonnull align 8 dereferenceable(56) %6)
  store ptr getelementptr inbounds inrange(-16, 32) ({ [6 x ptr] }, ptr @_ZTVN3gmx22InconsistentInputErrorE, i32 0, i32 0, i32 2), ptr %5, align 8, !tbaa !152
  ret void
}

; Function Attrs: mustprogress uwtable
define internal void @_ZL15check_moleculesPK10gmx_mtop_tiP18gmx_ana_selparam_tPv(ptr noundef %0, i32 noundef %1, ptr noundef %2, ptr noundef %3) #0 personality ptr @__gxx_personality_v0 {
  %5 = alloca ptr, align 8
  %6 = alloca i32, align 4
  %7 = alloca ptr, align 8
  %8 = alloca ptr, align 8
  %9 = alloca i8, align 1
  %10 = alloca %"class.gmx::InconsistentInputError", align 8
  %11 = alloca %"class.gmx::ExceptionInitializer", align 8
  %12 = alloca ptr, align 8
  %13 = alloca i32, align 4
  %14 = alloca %"class.gmx::ExceptionInfo", align 8
  %15 = alloca %"struct.gmx::ThrowLocation", align 8
  %16 = alloca i1, align 1
  store ptr %0, ptr %5, align 8, !tbaa !32
  store i32 %1, ptr %6, align 4, !tbaa !22
  store ptr %2, ptr %7, align 8, !tbaa !139
  store ptr %3, ptr %8, align 8, !tbaa !13
  call void @llvm.lifetime.start.p0(i64 1, ptr %9) #18
  %17 = load ptr, ptr %5, align 8, !tbaa !32
  %18 = icmp ne ptr %17, null
  br i1 %18, label %19, label %24

19:                                               ; preds = %4
  %20 = load ptr, ptr %5, align 8, !tbaa !32
  %21 = getelementptr inbounds nuw %struct.gmx_mtop_t, ptr %20, i32 0, i32 9
  %22 = load i8, ptr %21, align 8, !tbaa !141, !range !142, !noundef !143
  %23 = trunc i8 %22 to i1
  br label %24

24:                                               ; preds = %19, %4
  %25 = phi i1 [ false, %4 ], [ %23, %19 ]
  %26 = zext i1 %25 to i8
  store i8 %26, ptr %9, align 1, !tbaa !144
  %27 = load i8, ptr %9, align 1, !tbaa !144, !range !142, !noundef !143
  %28 = trunc i8 %27 to i1
  br i1 %28, label %58, label %29

29:                                               ; preds = %24
  store i1 true, ptr %16, align 1
  %30 = call ptr @__cxa_allocate_exception(i64 24) #18
  call void @llvm.lifetime.start.p0(i64 56, ptr %11) #18
  invoke void @_ZN3gmx20ExceptionInitializerC2EPKc(ptr noundef nonnull align 8 dereferenceable(56) %11, ptr noundef @.str.20)
          to label %31 unwind label %36

31:                                               ; preds = %29
  invoke void @_ZN3gmx22InconsistentInputErrorC2ERKNS_20ExceptionInitializerE(ptr noundef nonnull align 8 dereferenceable(24) %10, ptr noundef nonnull align 8 dereferenceable(56) %11)
          to label %32 unwind label %40

32:                                               ; preds = %31
  call void @llvm.lifetime.start.p0(i64 32, ptr %14) #18
  call void @llvm.lifetime.start.p0(i64 24, ptr %15) #18
  invoke void @_ZN3gmx13ThrowLocationC2EPKcS2_i(ptr noundef nonnull align 8 dereferenceable(20) %15, ptr noundef @__PRETTY_FUNCTION__._ZL15check_moleculesPK10gmx_mtop_tiP18gmx_ana_selparam_tPv, ptr noundef @.str.21, i32 noundef 506)
          to label %33 unwind label %44

33:                                               ; preds = %32
  invoke void @_ZN3gmx13ExceptionInfoINS_22ExceptionInfoLocation_ENS_13ThrowLocationEEC2ERKS2_(ptr noundef nonnull align 8 dereferenceable(32) %14, ptr noundef nonnull align 8 dereferenceable(20) %15)
          to label %34 unwind label %44

34:                                               ; preds = %33
  invoke void @_ZN3gmxlsINS_22InconsistentInputErrorENS_22ExceptionInfoLocation_ENS_13ThrowLocationEEENSt9enable_ifIXsr3stdE12is_base_of_vINS_16GromacsExceptionET_EES6_E4typeES6_RKNS_13ExceptionInfoIT0_T1_EE(ptr dead_on_unwind writable sret(%"class.gmx::InconsistentInputError") align 8 %30, ptr noundef %10, ptr noundef nonnull align 8 dereferenceable(32) %14)
          to label %35 unwind label %48

35:                                               ; preds = %34
  store i1 false, ptr %16, align 1
  invoke void @__cxa_throw(ptr %30, ptr @_ZTIN3gmx22InconsistentInputErrorE, ptr @_ZN3gmx16GromacsExceptionD2Ev) #19
          to label %64 unwind label %48

36:                                               ; preds = %29
  %37 = landingpad { ptr, i32 }
          cleanup
  %38 = extractvalue { ptr, i32 } %37, 0
  store ptr %38, ptr %12, align 8
  %39 = extractvalue { ptr, i32 } %37, 1
  store i32 %39, ptr %13, align 4
  br label %54

40:                                               ; preds = %31
  %41 = landingpad { ptr, i32 }
          cleanup
  %42 = extractvalue { ptr, i32 } %41, 0
  store ptr %42, ptr %12, align 8
  %43 = extractvalue { ptr, i32 } %41, 1
  store i32 %43, ptr %13, align 4
  br label %53

44:                                               ; preds = %33, %32
  %45 = landingpad { ptr, i32 }
          cleanup
  %46 = extractvalue { ptr, i32 } %45, 0
  store ptr %46, ptr %12, align 8
  %47 = extractvalue { ptr, i32 } %45, 1
  store i32 %47, ptr %13, align 4
  br label %52

48:                                               ; preds = %35, %34
  %49 = landingpad { ptr, i32 }
          cleanup
  %50 = extractvalue { ptr, i32 } %49, 0
  store ptr %50, ptr %12, align 8
  %51 = extractvalue { ptr, i32 } %49, 1
  store i32 %51, ptr %13, align 4
  call void @_ZN3gmx8internal14IExceptionInfoD2Ev(ptr noundef nonnull align 8 dereferenceable(32) %14) #18
  br label %52

52:                                               ; preds = %48, %44
  call void @llvm.lifetime.end.p0(i64 24, ptr %15) #18
  call void @llvm.lifetime.end.p0(i64 32, ptr %14) #18
  call void @_ZN3gmx16GromacsExceptionD2Ev(ptr noundef nonnull align 8 dereferenceable(24) %10) #18
  br label %53

53:                                               ; preds = %52, %40
  call void @_ZN3gmx20ExceptionInitializerD2Ev(ptr noundef nonnull align 8 dereferenceable(56) %11) #18
  br label %54

54:                                               ; preds = %53, %36
  call void @llvm.lifetime.end.p0(i64 56, ptr %11) #18
  %55 = load i1, ptr %16, align 1
  br i1 %55, label %56, label %57

56:                                               ; preds = %54
  call void @__cxa_free_exception(ptr %30) #18
  br label %57

57:                                               ; preds = %56, %54
  call void @llvm.lifetime.end.p0(i64 1, ptr %9) #18
  br label %59

58:                                               ; preds = %24
  call void @llvm.lifetime.end.p0(i64 1, ptr %9) #18
  ret void

59:                                               ; preds = %57
  %60 = load ptr, ptr %12, align 8
  %61 = load i32, ptr %13, align 4
  %62 = insertvalue { ptr, i32 } poison, ptr %60, 0
  %63 = insertvalue { ptr, i32 } %62, i32 %61, 1
  resume { ptr, i32 } %63

64:                                               ; preds = %35
  unreachable
}