; Function Attrs: mustprogress uwtable
define internal void @_ZL15check_moleculesPK10gmx_mtop_tiP18gmx_ana_selparam_tPv(ptr noundef readonly %0, i32 %1, ptr readnone captures(none) %2, ptr readnone captures(none) %3) #0 personality ptr @__gxx_personality_v0 {
  %5 = alloca %"class.gmx::InconsistentInputError", align 8
  %6 = alloca %"class.gmx::ExceptionInitializer", align 8
  %7 = alloca %"class.gmx::ExceptionInfo", align 8
  %.not = icmp eq ptr %0, null
  br i1 %.not, label %.critedge, label %8

8:                                                ; preds = %4
  %9 = getelementptr inbounds nuw i8, ptr %0, i64 704
  %10 = load i8, ptr %9, align 8, !tbaa !113, !range !114, !noundef !115
  %11 = trunc nuw i8 %10 to i1
  br i1 %11, label %23, label %.critedge

.critedge:                                        ; preds = %4, %8
  %12 = tail call ptr @__cxa_allocate_exception(i64 24) #20
  call void @llvm.lifetime.start.p0(i64 56, ptr nonnull %6) #20
  invoke void @_ZN3gmx20ExceptionInitializerC2EPKc(ptr noundef nonnull align 8 dereferenceable(56) %6, ptr noundef nonnull @.str.20)
          to label %13 unwind label %.thread

13:                                               ; preds = %.critedge
  invoke void @_ZN3gmx16GromacsExceptionC2ERKNS_20ExceptionInitializerE(ptr noundef nonnull align 8 dereferenceable(24) %5, ptr noundef nonnull align 8 dereferenceable(56) %6)
          to label %14 unwind label %.thread16

14:                                               ; preds = %13
  store ptr getelementptr inbounds nuw inrange(-16, 32) (i8, ptr @_ZTVN3gmx22InconsistentInputErrorE, i64 16), ptr %5, align 8, !tbaa !116
  call void @llvm.lifetime.start.p0(i64 32, ptr nonnull %7) #20
  store ptr getelementptr inbounds nuw inrange(-16, 16) (i8, ptr @_ZTVN3gmx13ExceptionInfoINS_22ExceptionInfoLocation_ENS_13ThrowLocationEEE, i64 16), ptr %7, align 8, !tbaa !116
  %15 = getelementptr inbounds nuw i8, ptr %7, i64 8
  store ptr @__PRETTY_FUNCTION__._ZL15check_moleculesPK10gmx_mtop_tiP18gmx_ana_selparam_tPv, ptr %15, align 8, !tbaa !118
  %.sroa.4.0..sroa_idx = getelementptr inbounds nuw i8, ptr %7, i64 16
  store ptr @.str.21, ptr %.sroa.4.0..sroa_idx, align 8, !tbaa !118
  %.sroa.5.0..sroa_idx = getelementptr inbounds nuw i8, ptr %7, i64 24
  store i32 506, ptr %.sroa.5.0..sroa_idx, align 8, !tbaa !16
  invoke void @_ZN3gmxlsINS_22InconsistentInputErrorENS_22ExceptionInfoLocation_ENS_13ThrowLocationEEENSt9enable_ifIXsr3stdE12is_base_of_vINS_16GromacsExceptionET_EES6_E4typeES6_RKNS_13ExceptionInfoIT0_T1_EE(ptr dead_on_unwind writable sret(%"class.gmx::InconsistentInputError") align 8 %12, ptr noundef nonnull %5, ptr noundef nonnull align 8 dereferenceable(32) %7)
          to label %16 unwind label %19

16:                                               ; preds = %14
  invoke void @__cxa_throw(ptr %12, ptr nonnull @_ZTIN3gmx22InconsistentInputErrorE, ptr nonnull @_ZN3gmx16GromacsExceptionD2Ev) #21
          to label %24 unwind label %19

.thread:                                          ; preds = %.critedge
  %17 = landingpad { ptr, i32 }
          cleanup
  br label %.sink.split

.thread16:                                        ; preds = %13
  %18 = landingpad { ptr, i32 }
          cleanup
  call void @_ZN3gmx20ExceptionInitializerD2Ev(ptr noundef nonnull align 8 dereferenceable(56) %6) #20
  br label %.sink.split

19:                                               ; preds = %14, %16
  %.0 = phi i1 [ false, %16 ], [ true, %14 ]
  %20 = landingpad { ptr, i32 }
          cleanup
  call void @_ZN3gmx8internal14IExceptionInfoD2Ev(ptr noundef nonnull align 8 dereferenceable(32) %7) #20
  call void @llvm.lifetime.end.p0(i64 32, ptr nonnull %7) #20
  call void @_ZN3gmx16GromacsExceptionD2Ev(ptr noundef nonnull align 8 dereferenceable(24) %5) #20
  call void @_ZN3gmx20ExceptionInitializerD2Ev(ptr noundef nonnull align 8 dereferenceable(56) %6) #20
  call void @llvm.lifetime.end.p0(i64 56, ptr nonnull %6) #20
  br i1 %.0, label %21, label %22

.sink.split:                                      ; preds = %.thread, %.thread16
  %.pn.pn15.ph = phi { ptr, i32 } [ %18, %.thread16 ], [ %17, %.thread ]
  call void @llvm.lifetime.end.p0(i64 56, ptr nonnull %6) #20
  br label %21

21:                                               ; preds = %.sink.split, %19
  %.pn.pn15 = phi { ptr, i32 } [ %20, %19 ], [ %.pn.pn15.ph, %.sink.split ]
  call void @__cxa_free_exception(ptr %12) #20
  br label %22

22:                                               ; preds = %21, %19
  %.pn.pn14 = phi { ptr, i32 } [ %.pn.pn15, %21 ], [ %20, %19 ]
  resume { ptr, i32 } %.pn.pn14

23:                                               ; preds = %8
  ret void

24:                                               ; preds = %16
  unreachable
}